target datalayout = "e-m:e-p270:32:32-p271:32:32-p272:64:64-i64:64-i128:128-f80:128-n8:16:32:64-S128"
target triple = "x86_64-pc-linux-gnu"

%struct.AVRational = type { i32, i32 }
%struct.AVChannelLayout = type { i32, i32, %union.anon, ptr }
%union.anon = type { i64 }
%struct.AVCodecContext = type { ptr, i32, i32, ptr, i32, i32, ptr, ptr, ptr, i64, i32, i32, ptr, i32, %struct.AVRational, %struct.AVRational, %struct.AVRational, i32, i32, i32, i32, i32, %struct.AVRational, i32, i32, i32, i32, i32, i32, i32, i32, i32, i32, i32, ptr, ptr, i32, float, float, float, float, float, float, float, float, float, i32, i32, i32, i32, i32, i32, i32, i32, i32, i32, i32, i32, ptr, ptr, ptr, i32, i32, i32, i32, i32, i32, i32, i32, i32, i32, %struct.AVChannelLayout, i32, i32, i32, i32, i32, i32, i32, i32, ptr, i32, i32, i32, float, float, i32, i32, i32, i32, i32, ptr, i64, i64, float, float, i32, i32, ptr, ptr, i32, i32, i32, i32, i32, ptr, ptr, ptr, ptr, i32, i32, [8 x i64], i32, i32, i32, i32, i32, i32, i32, ptr, ptr, i32, i32, i32, i32, i32, i32, i32, i32, i32, i32, ptr, ptr, i32, i32, ptr, ptr, ptr, ptr, i32, i32, i64, i32, i32, i64, ptr, i64, ptr, i32, ptr, i32 }
%struct.AVCodec = type { ptr, ptr, i32, i32, i32, i8, ptr, ptr, ptr, ptr, ptr, ptr, ptr, ptr }
%struct.FFCodec = type { %struct.AVCodec, i32, i32, ptr, ptr, ptr, ptr, %union.anon.0, ptr, ptr, ptr, ptr, ptr, ptr }
%union.anon.0 = type { ptr }

; Function Attrs: alwaysinline nounwind uwtable
define internal ptr @ffcodec(ptr noundef %0) #3 {
  %2 = alloca ptr, align 8
  store ptr %0, ptr %2, align 8, !tbaa !19
  %3 = load ptr, ptr %2, align 8, !tbaa !19
  ret ptr %3
}

; Function Attrs: nounwind uwtable
define i32 @avcodec_get_supported_config(ptr noundef %0, ptr noundef %1, i32 noundef %2, i32 noundef %3, ptr noundef %4, ptr noundef %5) #0 {
  %7 = alloca i32, align 4
  %8 = alloca ptr, align 8
  %9 = alloca ptr, align 8
  %10 = alloca i32, align 4
  %11 = alloca i32, align 4
  %12 = alloca ptr, align 8
  %13 = alloca ptr, align 8
  %14 = alloca ptr, align 8
  %15 = alloca i32, align 4
  %16 = alloca i32, align 4
  store ptr %0, ptr %8, align 8, !tbaa !4
  store ptr %1, ptr %9, align 8, !tbaa !19
  store i32 %2, ptr %10, align 4, !tbaa !12
  store i32 %3, ptr %11, align 4, !tbaa !12
  store ptr %4, ptr %12, align 8, !tbaa !155
  store ptr %5, ptr %13, align 8, !tbaa !10
  call void @llvm.lifetime.start.p0(i64 8, ptr %14) #13
  call void @llvm.lifetime.start.p0(i64 4, ptr %15) #13
  store i32 0, ptr %15, align 4, !tbaa !12
  %17 = load ptr, ptr %9, align 8, !tbaa !19
  %18 = icmp ne ptr %17, null
  br i1 %18, label %23, label %19

19:                                               ; preds = %6
  %20 = load ptr, ptr %8, align 8, !tbaa !4
  %21 = getelementptr inbounds nuw %struct.AVCodecContext, ptr %20, i32 0, i32 3
  %22 = load ptr, ptr %21, align 8, !tbaa !24
  store ptr %22, ptr %9, align 8, !tbaa !19
  br label %23

23:                                               ; preds = %19, %6
  %24 = load ptr, ptr %13, align 8, !tbaa !10
  %25 = icmp ne ptr %24, null
  br i1 %25, label %27, label %26

26:                                               ; preds = %23
  store ptr %15, ptr %13, align 8, !tbaa !10
  br label %27

27:                                               ; preds = %26, %23
  %28 = load ptr, ptr %9, align 8, !tbaa !19
  %29 = call ptr @ffcodec(ptr noundef %28)
  store ptr %29, ptr %14, align 8, !tbaa !44
  %30 = load ptr, ptr %14, align 8, !tbaa !44
  %31 = getelementptr inbounds nuw %struct.FFCodec, ptr %30, i32 0, i32 13
  %32 = load ptr, ptr %31, align 8, !tbaa !161
  %33 = icmp ne ptr %32, null
  br i1 %33, label %34, label %45

34:                                               ; preds = %27
  %35 = load ptr, ptr %14, align 8, !tbaa !44
  %36 = getelementptr inbounds nuw %struct.FFCodec, ptr %35, i32 0, i32 13
  %37 = load ptr, ptr %36, align 8, !tbaa !161
  %38 = load ptr, ptr %8, align 8, !tbaa !4
  %39 = load ptr, ptr %9, align 8, !tbaa !19
  %40 = load i32, ptr %10, align 4, !tbaa !12
  %41 = load i32, ptr %11, align 4, !tbaa !12
  %42 = load ptr, ptr %12, align 8, !tbaa !155
  %43 = load ptr, ptr %13, align 8, !tbaa !10
  %44 = call i32 %37(ptr noundef %38, ptr noundef %39, i32 noundef %40, i32 noundef %41, ptr noundef %42, ptr noundef %43)
  store i32 %44, ptr %7, align 4
  store i32 1, ptr %16, align 4
  br label %53

45:                                               ; preds = %27
  %46 = load ptr, ptr %8, align 8, !tbaa !4
  %47 = load ptr, ptr %9, align 8, !tbaa !19
  %48 = load i32, ptr %10, align 4, !tbaa !12
  %49 = load i32, ptr %11, align 4, !tbaa !12
  %50 = load ptr, ptr %12, align 8, !tbaa !155
  %51 = load ptr, ptr %13, align 8, !tbaa !10
  %52 = call i32 @ff_default_get_supported_config(ptr noundef %46, ptr noundef %47, i32 noundef %48, i32 noundef %49, ptr noundef %50, ptr noundef %51)
  store i32 %52, ptr %7, align 4
  store i32 1, ptr %16, align 4
  br label %53

53:                                               ; preds = %45, %34
  call void @llvm.lifetime.end.p0(i64 4, ptr %15) #13
  call void @llvm.lifetime.end.p0(i64 8, ptr %14) #13
  %54 = load i32, ptr %7, align 4
  ret i32 %54
}