; Function Attrs: nounwind uwtable
define i32 @avcodec_get_supported_config(ptr noundef %0, ptr noundef %1, i32 noundef %2, i32 noundef %3, ptr noundef %4, ptr noundef %5) local_unnamed_addr #0 {
  %7 = alloca i32, align 4
  call void @llvm.lifetime.start.p0(i64 4, ptr nonnull %7) #12
  store i32 0, ptr %7, align 4, !tbaa !6
  %.not = icmp eq ptr %1, null
  br i1 %.not, label %8, label %11

8:                                                ; preds = %6
  %9 = getelementptr inbounds nuw i8, ptr %0, i64 16
  %10 = load ptr, ptr %9, align 8, !tbaa !31
  br label %11

11:                                               ; preds = %8, %6
  %.018 = phi ptr [ %1, %6 ], [ %10, %8 ]
  %.not21 = icmp eq ptr %5, null
  %spec.store.select = select i1 %.not21, ptr %7, ptr %5
  %12 = getelementptr inbounds nuw i8, ptr %.018, i64 184
  %13 = load ptr, ptr %12, align 8, !tbaa !139
  %.not22 = icmp eq ptr %13, null
  br i1 %.not22, label %16, label %14

14:                                               ; preds = %11
  %15 = call i32 %13(ptr noundef %0, ptr noundef nonnull %.018, i32 noundef %2, i32 noundef %3, ptr noundef %4, ptr noundef nonnull %spec.store.select) #12
  br label %18

16:                                               ; preds = %11
  %17 = call i32 @ff_default_get_supported_config(ptr poison, ptr noundef nonnull %.018, i32 noundef %2, i32 poison, ptr noundef %4, ptr noundef nonnull %spec.store.select)
  br label %18

18:                                               ; preds = %16, %14
  %.0 = phi i32 [ %15, %14 ], [ %17, %16 ]
  call void @llvm.lifetime.end.p0(i64 4, ptr nonnull %7) #12
  ret i32 %.0
}